target datalayout = "e-m:e-p270:32:32-p271:32:32-p272:64:64-i64:64-i128:128-f80:128-n8:16:32:64-S128"
target triple = "x86_64-pc-linux-gnu"

%struct.mbedtls_pkcs7 = type { %struct.mbedtls_asn1_buf, %struct.mbedtls_pkcs7_signed_data }
%struct.mbedtls_asn1_buf = type { i32, i64, ptr }
%struct.mbedtls_pkcs7_signed_data = type { i32, %struct.mbedtls_asn1_buf, i32, %struct.mbedtls_x509_crt, i32, %struct.mbedtls_x509_crl, i32, %struct.mbedtls_pkcs7_signer_info }
%struct.mbedtls_x509_crt = type { i32, %struct.mbedtls_asn1_buf, %struct.mbedtls_asn1_buf, i32, %struct.mbedtls_asn1_buf, %struct.mbedtls_asn1_buf, %struct.mbedtls_asn1_buf, %struct.mbedtls_asn1_buf, %struct.mbedtls_asn1_named_data, %struct.mbedtls_asn1_named_data, %struct.mbedtls_x509_time, %struct.mbedtls_x509_time, %struct.mbedtls_asn1_buf, %struct.mbedtls_pk_context, %struct.mbedtls_asn1_buf, %struct.mbedtls_asn1_buf, %struct.mbedtls_asn1_buf, %struct.mbedtls_asn1_sequence, %struct.mbedtls_asn1_buf, %struct.mbedtls_x509_authority, %struct.mbedtls_asn1_sequence, i32, i32, i32, i32, %struct.mbedtls_asn1_sequence, i8, %struct.mbedtls_asn1_buf, i32, i32, ptr, ptr }
%struct.mbedtls_asn1_named_data = type { %struct.mbedtls_asn1_buf, %struct.mbedtls_asn1_buf, ptr, i8 }
%struct.mbedtls_x509_time = type { i32, i32, i32, i32, i32, i32 }
%struct.mbedtls_pk_context = type { ptr, ptr }
%struct.mbedtls_x509_authority = type { %struct.mbedtls_asn1_buf, %struct.mbedtls_asn1_sequence, %struct.mbedtls_asn1_buf, %struct.mbedtls_asn1_buf }
%struct.mbedtls_asn1_sequence = type { %struct.mbedtls_asn1_buf, ptr }
%struct.mbedtls_x509_crl = type { %struct.mbedtls_asn1_buf, %struct.mbedtls_asn1_buf, i32, %struct.mbedtls_asn1_buf, %struct.mbedtls_asn1_buf, %struct.mbedtls_asn1_named_data, %struct.mbedtls_x509_time, %struct.mbedtls_x509_time, %struct.mbedtls_x509_crl_entry, %struct.mbedtls_asn1_buf, %struct.mbedtls_asn1_buf, %struct.mbedtls_asn1_buf, i32, i32, ptr, ptr }
%struct.mbedtls_x509_crl_entry = type { %struct.mbedtls_asn1_buf, %struct.mbedtls_asn1_buf, %struct.mbedtls_x509_time, %struct.mbedtls_asn1_buf, ptr }
%struct.mbedtls_pkcs7_signer_info = type { i32, %struct.mbedtls_asn1_buf, %struct.mbedtls_asn1_named_data, %struct.mbedtls_asn1_buf, %struct.mbedtls_asn1_buf, %struct.mbedtls_asn1_buf, %struct.mbedtls_asn1_buf, ptr }

; Function Attrs: nounwind uwtable
define internal i32 @mbedtls_pkcs7_data_or_hash_verify(ptr noundef %0, ptr noundef %1, ptr noundef %2, i64 noundef %3, i32 noundef %4) #0 {
  %6 = alloca i32, align 4
  %7 = alloca ptr, align 8
  %8 = alloca ptr, align 8
  %9 = alloca ptr, align 8
  %10 = alloca i64, align 8
  %11 = alloca i32, align 4
  %12 = alloca i32, align 4
  %13 = alloca ptr, align 8
  %14 = alloca %struct.mbedtls_pk_context, align 8
  %15 = alloca ptr, align 8
  %16 = alloca i32, align 4
  %17 = alloca ptr, align 8
  %18 = alloca i32, align 4
  store ptr %0, ptr %7, align 8, !tbaa !3
  store ptr %1, ptr %8, align 8, !tbaa !52
  store ptr %2, ptr %9, align 8, !tbaa !8
  store i64 %3, ptr %10, align 8, !tbaa !10
  store i32 %4, ptr %11, align 4, !tbaa !12
  call void @llvm.lifetime.start.p0(i64 4, ptr %12) #9
  store i32 -110, ptr %12, align 4, !tbaa !12
  call void @llvm.lifetime.start.p0(i64 8, ptr %13) #9
  call void @llvm.lifetime.start.p0(i64 16, ptr %14) #9
  %19 = load ptr, ptr %8, align 8, !tbaa !52
  %20 = getelementptr inbounds nuw %struct.mbedtls_x509_crt, ptr %19, i32 0, i32 13
  call void @llvm.memcpy.p0.p0.i64(ptr align 8 %14, ptr align 8 %20, i64 16, i1 false), !tbaa.struct !53
  call void @llvm.lifetime.start.p0(i64 8, ptr %15) #9
  call void @llvm.lifetime.start.p0(i64 4, ptr %16) #9
  call void @llvm.lifetime.start.p0(i64 8, ptr %17) #9
  %21 = load ptr, ptr %7, align 8, !tbaa !3
  %22 = getelementptr inbounds nuw %struct.mbedtls_pkcs7, ptr %21, i32 0, i32 1
  %23 = getelementptr inbounds nuw %struct.mbedtls_pkcs7_signed_data, ptr %22, i32 0, i32 6
  %24 = load i32, ptr %23, align 8, !tbaa !56
  %25 = icmp eq i32 %24, 0
  br i1 %25, label %26, label %27

26:                                               ; preds = %5
  store i32 -21888, ptr %6, align 4
  store i32 1, ptr %18, align 4
  br label %120

27:                                               ; preds = %5
  %28 = load ptr, ptr %8, align 8, !tbaa !52
  %29 = getelementptr inbounds nuw %struct.mbedtls_x509_crt, ptr %28, i32 0, i32 11
  %30 = call i32 @mbedtls_x509_time_is_past(ptr noundef %29)
  %31 = icmp ne i32 %30, 0
  br i1 %31, label %37, label %32

32:                                               ; preds = %27
  %33 = load ptr, ptr %8, align 8, !tbaa !52
  %34 = getelementptr inbounds nuw %struct.mbedtls_x509_crt, ptr %33, i32 0, i32 10
  %35 = call i32 @mbedtls_x509_time_is_future(ptr noundef %34)
  %36 = icmp ne i32 %35, 0
  br i1 %36, label %37, label %38

37:                                               ; preds = %32, %27
  store i32 -22656, ptr %6, align 4
  store i32 1, ptr %18, align 4
  br label %120

38:                                               ; preds = %32
  %39 = load ptr, ptr %7, align 8, !tbaa !3
  %40 = getelementptr inbounds nuw %struct.mbedtls_pkcs7, ptr %39, i32 0, i32 1
  %41 = getelementptr inbounds nuw %struct.mbedtls_pkcs7_signed_data, ptr %40, i32 0, i32 1
  %42 = call i32 @mbedtls_oid_get_md_alg(ptr noundef %41, ptr noundef %16)
  store i32 %42, ptr %12, align 4, !tbaa !12
  %43 = load i32, ptr %12, align 4, !tbaa !12
  %44 = icmp ne i32 %43, 0
  br i1 %44, label %45, label %47

45:                                               ; preds = %38
  %46 = load i32, ptr %12, align 4, !tbaa !12
  store i32 %46, ptr %6, align 4
  store i32 1, ptr %18, align 4
  br label %120

47:                                               ; preds = %38
  %48 = load i32, ptr %16, align 4, !tbaa !12
  %49 = call ptr @mbedtls_md_info_from_type(i32 noundef %48)
  store ptr %49, ptr %15, align 8, !tbaa !57
  %50 = load ptr, ptr %15, align 8, !tbaa !57
  %51 = icmp eq ptr %50, null
  br i1 %51, label %52, label %53

52:                                               ; preds = %47
  store i32 -22528, ptr %6, align 4
  store i32 1, ptr %18, align 4
  br label %120

53:                                               ; preds = %47
  %54 = load ptr, ptr %15, align 8, !tbaa !57
  %55 = call zeroext i8 @mbedtls_md_get_size(ptr noundef %54)
  %56 = zext i8 %55 to i64
  %57 = call noalias ptr @calloc(i64 noundef %56, i64 noundef 1) #10
  store ptr %57, ptr %13, align 8, !tbaa !8
  %58 = load ptr, ptr %13, align 8, !tbaa !8
  %59 = icmp eq ptr %58, null
  br i1 %59, label %60, label %61

60:                                               ; preds = %53
  store i32 -22400, ptr %6, align 4
  store i32 1, ptr %18, align 4
  br label %120

61:                                               ; preds = %53
  %62 = load i32, ptr %11, align 4, !tbaa !12
  %63 = icmp ne i32 %62, 0
  br i1 %63, label %64, label %76

64:                                               ; preds = %61
  %65 = load i64, ptr %10, align 8, !tbaa !10
  %66 = load ptr, ptr %15, align 8, !tbaa !57
  %67 = call zeroext i8 @mbedtls_md_get_size(ptr noundef %66)
  %68 = zext i8 %67 to i64
  %69 = icmp ne i64 %65, %68
  br i1 %69, label %70, label %71

70:                                               ; preds = %64
  store i32 -22528, ptr %12, align 4, !tbaa !12
  br label %75

71:                                               ; preds = %64
  %72 = load ptr, ptr %13, align 8, !tbaa !8
  %73 = load ptr, ptr %9, align 8, !tbaa !8
  %74 = load i64, ptr %10, align 8, !tbaa !10
  call void @llvm.memcpy.p0.p0.i64(ptr align 1 %72, ptr align 1 %73, i64 %74, i1 false)
  br label %75

75:                                               ; preds = %71, %70
  br label %82

76:                                               ; preds = %61
  %77 = load ptr, ptr %15, align 8, !tbaa !57
  %78 = load ptr, ptr %9, align 8, !tbaa !8
  %79 = load i64, ptr %10, align 8, !tbaa !10
  %80 = load ptr, ptr %13, align 8, !tbaa !8
  %81 = call i32 @mbedtls_md(ptr noundef %77, ptr noundef %78, i64 noundef %79, ptr noundef %80)
  store i32 %81, ptr %12, align 4, !tbaa !12
  br label %82

82:                                               ; preds = %76, %75
  %83 = load i32, ptr %12, align 4, !tbaa !12
  %84 = icmp ne i32 %83, 0
  br i1 %84, label %85, label %87

85:                                               ; preds = %82
  %86 = load ptr, ptr %13, align 8, !tbaa !8
  call void @free(ptr noundef %86) #9
  store i32 -22528, ptr %6, align 4
  store i32 1, ptr %18, align 4
  br label %120

87:                                               ; preds = %82
  store i32 -22528, ptr %12, align 4, !tbaa !12
  %88 = load ptr, ptr %7, align 8, !tbaa !3
  %89 = getelementptr inbounds nuw %struct.mbedtls_pkcs7, ptr %88, i32 0, i32 1
  %90 = getelementptr inbounds nuw %struct.mbedtls_pkcs7_signed_data, ptr %89, i32 0, i32 7
  store ptr %90, ptr %17, align 8, !tbaa !48
  br label %91

91:                                               ; preds = %113, %87
  %92 = load ptr, ptr %17, align 8, !tbaa !48
  %93 = icmp ne ptr %92, null
  br i1 %93, label %94, label %117

94:                                               ; preds = %91
  %95 = load i32, ptr %16, align 4, !tbaa !12
  %96 = load ptr, ptr %13, align 8, !tbaa !8
  %97 = load ptr, ptr %15, align 8, !tbaa !57
  %98 = call zeroext i8 @mbedtls_md_get_size(ptr noundef %97)
  %99 = zext i8 %98 to i64
  %100 = load ptr, ptr %17, align 8, !tbaa !48
  %101 = getelementptr inbounds nuw %struct.mbedtls_pkcs7_signer_info, ptr %100, i32 0, i32 6
  %102 = getelementptr inbounds nuw %struct.mbedtls_asn1_buf, ptr %101, i32 0, i32 2
  %103 = load ptr, ptr %102, align 8, !tbaa !59
  %104 = load ptr, ptr %17, align 8, !tbaa !48
  %105 = getelementptr inbounds nuw %struct.mbedtls_pkcs7_signer_info, ptr %104, i32 0, i32 6
  %106 = getelementptr inbounds nuw %struct.mbedtls_asn1_buf, ptr %105, i32 0, i32 1
  %107 = load i64, ptr %106, align 8, !tbaa !60
  %108 = call i32 @mbedtls_pk_verify(ptr noundef %14, i32 noundef %95, ptr noundef %96, i64 noundef %99, ptr noundef %103, i64 noundef %107)
  store i32 %108, ptr %12, align 4, !tbaa !12
  %109 = load i32, ptr %12, align 4, !tbaa !12
  %110 = icmp eq i32 %109, 0
  br i1 %110, label %111, label %112

111:                                              ; preds = %94
  br label %117

112:                                              ; preds = %94
  br label %113

113:                                              ; preds = %112
  %114 = load ptr, ptr %17, align 8, !tbaa !48
  %115 = getelementptr inbounds nuw %struct.mbedtls_pkcs7_signer_info, ptr %114, i32 0, i32 7
  %116 = load ptr, ptr %115, align 8, !tbaa !49
  store ptr %116, ptr %17, align 8, !tbaa !48
  br label %91, !llvm.loop !61

117:                                              ; preds = %111, %91
  %118 = load ptr, ptr %13, align 8, !tbaa !8
  call void @free(ptr noundef %118) #9
  %119 = load i32, ptr %12, align 4, !tbaa !12
  store i32 %119, ptr %6, align 4
  store i32 1, ptr %18, align 4
  br label %120

120:                                              ; preds = %117, %85, %60, %52, %45, %37, %26
  call void @llvm.lifetime.end.p0(i64 8, ptr %17) #9
  call void @llvm.lifetime.end.p0(i64 4, ptr %16) #9
  call void @llvm.lifetime.end.p0(i64 8, ptr %15) #9
  call void @llvm.lifetime.end.p0(i64 16, ptr %14) #9
  call void @llvm.lifetime.end.p0(i64 8, ptr %13) #9
  call void @llvm.lifetime.end.p0(i64 4, ptr %12) #9
  %121 = load i32, ptr %6, align 4
  ret i32 %121
}