; Function Attrs: nounwind uwtable
define internal fastcc i32 @mbedtls_pkcs7_data_or_hash_verify(ptr noundef %0, ptr noundef %1, ptr noundef nonnull %2, i64 noundef %3, i32 noundef range(i32 0, 2) %4) unnamed_addr #2 {
  %6 = alloca %struct.mbedtls_pk_context, align 8
  %7 = alloca i32, align 4
  call void @llvm.lifetime.start.p0(i64 16, ptr nonnull %6) #9
  %8 = getelementptr inbounds nuw i8, ptr %1, i64 360
  call void @llvm.memcpy.p0.p0.i64(ptr noundef nonnull align 8 dereferenceable(16) %6, ptr noundef nonnull align 8 dereferenceable(16) %8, i64 16, i1 false), !tbaa.struct !45
  call void @llvm.lifetime.start.p0(i64 4, ptr nonnull %7) #9
  %9 = getelementptr inbounds nuw i8, ptr %0, i64 1232
  %10 = load i32, ptr %9, align 8, !tbaa !48
  %11 = icmp eq i32 %10, 0
  br i1 %11, label %52, label %12

12:                                               ; preds = %5
  %13 = getelementptr inbounds nuw i8, ptr %1, i64 312
  %14 = tail call i32 @mbedtls_x509_time_is_past(ptr noundef nonnull %13) #9
  %.not = icmp eq i32 %14, 0
  br i1 %.not, label %15, label %52

15:                                               ; preds = %12
  %16 = getelementptr inbounds nuw i8, ptr %1, i64 288
  %17 = tail call i32 @mbedtls_x509_time_is_future(ptr noundef nonnull %16) #9
  %.not41 = icmp eq i32 %17, 0
  br i1 %.not41, label %18, label %52

18:                                               ; preds = %15
  %19 = getelementptr inbounds nuw i8, ptr %0, i64 32
  %20 = call i32 @mbedtls_oid_get_md_alg(ptr noundef nonnull %19, ptr noundef nonnull %7) #9
  %.not42 = icmp eq i32 %20, 0
  br i1 %.not42, label %21, label %52

21:                                               ; preds = %18
  %22 = load i32, ptr %7, align 4, !tbaa !32
  %23 = call ptr @mbedtls_md_info_from_type(i32 noundef %22) #9
  %24 = icmp eq ptr %23, null
  br i1 %24, label %52, label %25

25:                                               ; preds = %21
  %26 = call zeroext i8 @mbedtls_md_get_size(ptr noundef nonnull %23) #9
  %27 = zext i8 %26 to i64
  %28 = call noalias ptr @calloc(i64 noundef %27, i64 noundef 1) #10
  %29 = icmp eq ptr %28, null
  br i1 %29, label %52, label %30

30:                                               ; preds = %25
  %.not43 = icmp eq i32 %4, 0
  br i1 %.not43, label %34, label %31

31:                                               ; preds = %30
  %32 = call zeroext i8 @mbedtls_md_get_size(ptr noundef nonnull %23) #9
  %33 = zext i8 %32 to i64
  %.not44 = icmp eq i64 %3, %33
  br i1 %.not44, label %.critedge, label %.sink.split

.critedge:                                        ; preds = %31
  call void @llvm.memcpy.p0.p0.i64(ptr nonnull align 1 %28, ptr nonnull align 1 %2, i64 %3, i1 false)
  br label %37

34:                                               ; preds = %30
  %35 = call i32 @mbedtls_md(ptr noundef nonnull %23, ptr noundef nonnull %2, i64 noundef %3, ptr noundef nonnull %28) #9
  %36 = icmp eq i32 %35, 0
  br i1 %36, label %37, label %.sink.split

37:                                               ; preds = %.critedge, %34
  %38 = getelementptr inbounds nuw i8, ptr %0, i64 1240
  br label %39

39:                                               ; preds = %37, %49
  %.049 = phi ptr [ %38, %37 ], [ %51, %49 ]
  %40 = load i32, ptr %7, align 4, !tbaa !32
  %41 = call zeroext i8 @mbedtls_md_get_size(ptr noundef nonnull %23) #9
  %42 = zext i8 %41 to i64
  %43 = getelementptr inbounds nuw i8, ptr %.049, i64 184
  %44 = load ptr, ptr %43, align 8, !tbaa !49
  %45 = getelementptr inbounds nuw i8, ptr %.049, i64 176
  %46 = load i64, ptr %45, align 8, !tbaa !50
  %47 = call i32 @mbedtls_pk_verify(ptr noundef nonnull %6, i32 noundef %40, ptr noundef nonnull %28, i64 noundef %42, ptr noundef %44, i64 noundef %46) #9
  %48 = icmp eq i32 %47, 0
  br i1 %48, label %.sink.split, label %49

49:                                               ; preds = %39
  %50 = getelementptr inbounds nuw i8, ptr %.049, i64 192
  %51 = load ptr, ptr %50, align 8, !tbaa !43
  %.not46 = icmp eq ptr %51, null
  br i1 %.not46, label %.sink.split, label %39, !llvm.loop !51

.sink.split:                                      ; preds = %49, %39, %34, %31
  %.032.ph = phi i32 [ -22528, %31 ], [ -22528, %34 ], [ %47, %39 ], [ %47, %49 ]
  call void @free(ptr noundef %28) #9
  br label %52

52:                                               ; preds = %.sink.split, %25, %21, %18, %12, %15, %5
  %.032 = phi i32 [ -21888, %5 ], [ -22656, %15 ], [ -22656, %12 ], [ %20, %18 ], [ -22528, %21 ], [ -22400, %25 ], [ %.032.ph, %.sink.split ]
  call void @llvm.lifetime.end.p0(i64 4, ptr nonnull %7) #9
  call void @llvm.lifetime.end.p0(i64 16, ptr nonnull %6) #9
  ret i32 %.032
}